; Function Attrs: nounwind uwtable
define noundef ptr @pqBuildStartupPacket3(ptr noundef readonly captures(none) %0, ptr noundef writeonly captures(none) initializes((0, 4)) %1, ptr noundef readonly captures(none) %2) local_unnamed_addr #0 {
  %4 = tail call fastcc i32 @build_startup_packet(ptr noundef %0, ptr noundef null, ptr noundef %2)
  store i32 %4, ptr %1, align 4
  %5 = sext i32 %4 to i64
  %6 = tail call noalias ptr @malloc(i64 noundef %5) #19
  %.not = icmp eq ptr %6, null
  br i1 %.not, label %9, label %7

7:                                                ; preds = %3
  %8 = tail call fastcc i32 @build_startup_packet(ptr noundef %0, ptr noundef nonnull %6, ptr noundef %2)
  store i32 %8, ptr %1, align 4
  br label %9

9:                                                ; preds = %3, %7
  ret ptr %6
}